target datalayout = "e-m:e-p270:32:32-p271:32:32-p272:64:64-i64:64-i128:128-f80:128-n8:16:32:64-S128"
target triple = "x86_64-pc-linux-gnu"

%struct.reftable_block_source = type { ptr, ptr }
%struct.reftable_block = type { ptr, i64, %struct.reftable_block_source }
%struct.block_iter = type { i32, ptr, i64, i32, %struct.reftable_buf, %struct.reftable_buf }
%struct.reftable_buf = type { i64, i64, ptr }
%struct.table_iter = type { ptr, i8, i64, %struct.block_reader, %struct.block_iter, i32 }
%struct.block_reader = type { i32, %struct.reftable_block, i32, ptr, ptr, i64, i32, ptr, i16, i32 }
%struct.reftable_record = type { i8, %union.anon }
%union.anon = type { %struct.reftable_log_record }
%struct.reftable_log_record = type { ptr, i64, i64, i32, %union.anon.2 }
%union.anon.2 = type { %struct.anon.3 }
%struct.anon.3 = type { [32 x i8], [32 x i8], ptr, ptr, i64, i16, ptr, i64 }

; Function Attrs: nounwind uwtable
define internal void @table_iter_block_done(ptr noundef %0) #0 {
  %2 = alloca ptr, align 8
  store ptr %0, ptr %2, align 8, !tbaa !47
  %3 = load ptr, ptr %2, align 8, !tbaa !47
  %4 = getelementptr inbounds nuw %struct.table_iter, ptr %3, i32 0, i32 3
  call void @block_reader_release(ptr noundef %4)
  %5 = load ptr, ptr %2, align 8, !tbaa !47
  %6 = getelementptr inbounds nuw %struct.table_iter, ptr %5, i32 0, i32 4
  call void @block_iter_reset(ptr noundef %6)
  ret void
}

; Function Attrs: nounwind uwtable
define internal i32 @table_iter_next_block(ptr noundef %0) #0 {
  %2 = alloca i32, align 4
  %3 = alloca ptr, align 8
  %4 = alloca i64, align 8
  %5 = alloca i32, align 4
  %6 = alloca i32, align 4
  store ptr %0, ptr %3, align 8, !tbaa !47
  call void @llvm.lifetime.start.p0(i64 8, ptr %4) #9
  %7 = load ptr, ptr %3, align 8, !tbaa !47
  %8 = getelementptr inbounds nuw %struct.table_iter, ptr %7, i32 0, i32 2
  %9 = load i64, ptr %8, align 8, !tbaa !97
  %10 = load ptr, ptr %3, align 8, !tbaa !47
  %11 = getelementptr inbounds nuw %struct.table_iter, ptr %10, i32 0, i32 3
  %12 = getelementptr inbounds nuw %struct.block_reader, ptr %11, i32 0, i32 9
  %13 = load i32, ptr %12, align 4, !tbaa !98
  %14 = zext i32 %13 to i64
  %15 = add i64 %9, %14
  store i64 %15, ptr %4, align 8, !tbaa !17
  call void @llvm.lifetime.start.p0(i64 4, ptr %5) #9
  %16 = load ptr, ptr %3, align 8, !tbaa !47
  %17 = getelementptr inbounds nuw %struct.table_iter, ptr %16, i32 0, i32 0
  %18 = load ptr, ptr %17, align 8, !tbaa !49
  %19 = load ptr, ptr %3, align 8, !tbaa !47
  %20 = getelementptr inbounds nuw %struct.table_iter, ptr %19, i32 0, i32 3
  %21 = load i64, ptr %4, align 8, !tbaa !17
  %22 = load ptr, ptr %3, align 8, !tbaa !47
  %23 = getelementptr inbounds nuw %struct.table_iter, ptr %22, i32 0, i32 1
  %24 = load i8, ptr %23, align 8, !tbaa !99
  %25 = call i32 @reader_init_block_reader(ptr noundef %18, ptr noundef %20, i64 noundef %21, i8 noundef zeroext %24)
  store i32 %25, ptr %5, align 4, !tbaa !19
  %26 = load i32, ptr %5, align 4, !tbaa !19
  %27 = icmp sgt i32 %26, 0
  br i1 %27, label %28, label %31

28:                                               ; preds = %1
  %29 = load ptr, ptr %3, align 8, !tbaa !47
  %30 = getelementptr inbounds nuw %struct.table_iter, ptr %29, i32 0, i32 5
  store i32 1, ptr %30, align 8, !tbaa !100
  br label %31

31:                                               ; preds = %28, %1
  %32 = load i32, ptr %5, align 4, !tbaa !19
  %33 = icmp ne i32 %32, 0
  br i1 %33, label %34, label %36

34:                                               ; preds = %31
  %35 = load i32, ptr %5, align 4, !tbaa !19
  store i32 %35, ptr %2, align 4
  store i32 1, ptr %6, align 4
  br label %46

36:                                               ; preds = %31
  %37 = load i64, ptr %4, align 8, !tbaa !17
  %38 = load ptr, ptr %3, align 8, !tbaa !47
  %39 = getelementptr inbounds nuw %struct.table_iter, ptr %38, i32 0, i32 2
  store i64 %37, ptr %39, align 8, !tbaa !97
  %40 = load ptr, ptr %3, align 8, !tbaa !47
  %41 = getelementptr inbounds nuw %struct.table_iter, ptr %40, i32 0, i32 5
  store i32 0, ptr %41, align 8, !tbaa !100
  %42 = load ptr, ptr %3, align 8, !tbaa !47
  %43 = getelementptr inbounds nuw %struct.table_iter, ptr %42, i32 0, i32 4
  %44 = load ptr, ptr %3, align 8, !tbaa !47
  %45 = getelementptr inbounds nuw %struct.table_iter, ptr %44, i32 0, i32 3
  call void @block_iter_seek_start(ptr noundef %43, ptr noundef %45)
  store i32 0, ptr %2, align 4
  store i32 1, ptr %6, align 4
  br label %46

46:                                               ; preds = %36, %34
  call void @llvm.lifetime.end.p0(i64 4, ptr %5) #9
  call void @llvm.lifetime.end.p0(i64 8, ptr %4) #9
  %47 = load i32, ptr %2, align 4
  ret i32 %47
}

; Function Attrs: inlinehint nounwind uwtable
define internal zeroext i8 @reftable_record_type(ptr noundef %0) #5 {
  %2 = alloca ptr, align 8
  store ptr %0, ptr %2, align 8, !tbaa !101
  %3 = load ptr, ptr %2, align 8, !tbaa !101
  %4 = getelementptr inbounds nuw %struct.reftable_record, ptr %3, i32 0, i32 0
  %5 = load i8, ptr %4, align 8, !tbaa !76
  ret i8 %5
}

; Function Attrs: nounwind uwtable
define internal i32 @table_iter_seek_linear(ptr noundef %0, ptr noundef %1) #0 {
  %3 = alloca i32, align 4
  %4 = alloca ptr, align 8
  %5 = alloca ptr, align 8
  %6 = alloca %struct.reftable_buf, align 8
  %7 = alloca %struct.reftable_buf, align 8
  %8 = alloca %struct.reftable_record, align 8
  %9 = alloca i32, align 4
  %10 = alloca %struct.table_iter, align 8
  %11 = alloca i32, align 4
  store ptr %0, ptr %4, align 8, !tbaa !47
  store ptr %1, ptr %5, align 8, !tbaa !101
  call void @llvm.lifetime.start.p0(i64 24, ptr %6) #9
  call void @llvm.memset.p0.i64(ptr align 8 %6, i8 0, i64 24, i1 false)
  call void @llvm.lifetime.start.p0(i64 24, ptr %7) #9
  call void @llvm.memset.p0.i64(ptr align 8 %7, i8 0, i64 24, i1 false)
  call void @llvm.lifetime.start.p0(i64 152, ptr %8) #9
  call void @llvm.lifetime.start.p0(i64 4, ptr %9) #9
  %12 = load ptr, ptr %5, align 8, !tbaa !101
  %13 = call zeroext i8 @reftable_record_type(ptr noundef %12)
  call void @reftable_record_init(ptr noundef %8, i8 noundef zeroext %13)
  %14 = load ptr, ptr %5, align 8, !tbaa !101
  %15 = call i32 @reftable_record_key(ptr noundef %14, ptr noundef %6)
  store i32 %15, ptr %9, align 4, !tbaa !19
  %16 = load i32, ptr %9, align 4, !tbaa !19
  %17 = icmp slt i32 %16, 0
  br i1 %17, label %18, label %19

18:                                               ; preds = %2
  br label %65

19:                                               ; preds = %2
  br label %20

20:                                               ; preds = %54, %19
  br label %21

21:                                               ; preds = %20
  call void @llvm.lifetime.start.p0(i64 208, ptr %10) #9
  %22 = load ptr, ptr %4, align 8, !tbaa !47
  call void @llvm.memcpy.p0.p0.i64(ptr align 8 %10, ptr align 8 %22, i64 208, i1 false), !tbaa.struct !103
  %23 = getelementptr inbounds nuw %struct.table_iter, ptr %10, i32 0, i32 3
  %24 = getelementptr inbounds nuw %struct.block_reader, ptr %23, i32 0, i32 1
  call void @llvm.memset.p0.i64(ptr align 8 %24, i8 0, i64 32, i1 false)
  %25 = getelementptr inbounds nuw %struct.table_iter, ptr %10, i32 0, i32 3
  %26 = getelementptr inbounds nuw %struct.block_reader, ptr %25, i32 0, i32 3
  store ptr null, ptr %26, align 8, !tbaa !106
  %27 = getelementptr inbounds nuw %struct.table_iter, ptr %10, i32 0, i32 3
  %28 = getelementptr inbounds nuw %struct.block_reader, ptr %27, i32 0, i32 4
  store ptr null, ptr %28, align 8, !tbaa !107
  %29 = getelementptr inbounds nuw %struct.table_iter, ptr %10, i32 0, i32 3
  %30 = getelementptr inbounds nuw %struct.block_reader, ptr %29, i32 0, i32 5
  store i64 0, ptr %30, align 8, !tbaa !108
  %31 = call i32 @table_iter_next_block(ptr noundef %10)
  store i32 %31, ptr %9, align 4, !tbaa !19
  %32 = load i32, ptr %9, align 4, !tbaa !19
  %33 = icmp slt i32 %32, 0
  br i1 %33, label %34, label %35

34:                                               ; preds = %21
  store i32 2, ptr %11, align 4
  br label %52

35:                                               ; preds = %21
  %36 = load i32, ptr %9, align 4, !tbaa !19
  %37 = icmp sgt i32 %36, 0
  br i1 %37, label %38, label %39

38:                                               ; preds = %35
  store i32 4, ptr %11, align 4
  br label %52

39:                                               ; preds = %35
  %40 = getelementptr inbounds nuw %struct.table_iter, ptr %10, i32 0, i32 3
  %41 = call i32 @block_reader_first_key(ptr noundef %40, ptr noundef %7)
  store i32 %41, ptr %9, align 4, !tbaa !19
  %42 = load i32, ptr %9, align 4, !tbaa !19
  %43 = icmp slt i32 %42, 0
  br i1 %43, label %44, label %45

44:                                               ; preds = %39
  store i32 2, ptr %11, align 4
  br label %52

45:                                               ; preds = %39
  %46 = call i32 @reftable_buf_cmp(ptr noundef %7, ptr noundef %6)
  %47 = icmp sgt i32 %46, 0
  br i1 %47, label %48, label %49

48:                                               ; preds = %45
  call void @table_iter_block_done(ptr noundef %10)
  store i32 4, ptr %11, align 4
  br label %52

49:                                               ; preds = %45
  %50 = load ptr, ptr %4, align 8, !tbaa !47
  call void @table_iter_block_done(ptr noundef %50)
  %51 = load ptr, ptr %4, align 8, !tbaa !47
  call void @llvm.memcpy.p0.p0.i64(ptr align 8 %51, ptr align 8 %10, i64 208, i1 false), !tbaa.struct !103
  store i32 0, ptr %11, align 4
  br label %52

52:                                               ; preds = %44, %34, %49, %48, %38
  call void @llvm.lifetime.end.p0(i64 208, ptr %10) #9
  %53 = load i32, ptr %11, align 4
  switch i32 %53, label %67 [
    i32 0, label %54
    i32 4, label %55
    i32 2, label %65
  ]

54:                                               ; preds = %52
  br label %20

55:                                               ; preds = %52
  %56 = load ptr, ptr %4, align 8, !tbaa !47
  %57 = getelementptr inbounds nuw %struct.table_iter, ptr %56, i32 0, i32 4
  %58 = load ptr, ptr %4, align 8, !tbaa !47
  %59 = getelementptr inbounds nuw %struct.table_iter, ptr %58, i32 0, i32 3
  %60 = call i32 @block_iter_seek_key(ptr noundef %57, ptr noundef %59, ptr noundef %6)
  store i32 %60, ptr %9, align 4, !tbaa !19
  %61 = load i32, ptr %9, align 4, !tbaa !19
  %62 = icmp slt i32 %61, 0
  br i1 %62, label %63, label %64

63:                                               ; preds = %55
  br label %65

64:                                               ; preds = %55
  store i32 0, ptr %9, align 4, !tbaa !19
  br label %65

65:                                               ; preds = %64, %52, %63, %18
  call void @reftable_record_release(ptr noundef %8)
  call void @reftable_buf_release(ptr noundef %6)
  call void @reftable_buf_release(ptr noundef %7)
  %66 = load i32, ptr %9, align 4, !tbaa !19
  store i32 %66, ptr %3, align 4
  store i32 1, ptr %11, align 4
  br label %67

67:                                               ; preds = %65, %52
  call void @llvm.lifetime.end.p0(i64 4, ptr %9) #9
  call void @llvm.lifetime.end.p0(i64 152, ptr %8) #9
  call void @llvm.lifetime.end.p0(i64 24, ptr %7) #9
  call void @llvm.lifetime.end.p0(i64 24, ptr %6) #9
  %68 = load i32, ptr %3, align 4
  ret i32 %68
}