; Function Attrs: nounwind uwtable
define internal fastcc range(i32 -2147483648, 1) i32 @table_iter_seek_linear(ptr noundef %0, ptr noundef %1) unnamed_addr #0 {
  %3 = alloca %struct.reftable_buf, align 8
  %4 = alloca %struct.reftable_buf, align 8
  %5 = alloca %struct.reftable_record, align 8
  %6 = alloca %struct.table_iter, align 8
  call void @llvm.lifetime.start.p0(i64 24, ptr nonnull %3) #12
  call void @llvm.memset.p0.i64(ptr noundef nonnull align 8 dereferenceable(24) %3, i8 0, i64 24, i1 false)
  call void @llvm.lifetime.start.p0(i64 24, ptr nonnull %4) #12
  call void @llvm.memset.p0.i64(ptr noundef nonnull align 8 dereferenceable(24) %4, i8 0, i64 24, i1 false)
  call void @llvm.lifetime.start.p0(i64 152, ptr nonnull %5) #12
  %.val = load i8, ptr %1, align 8, !tbaa !58
  call void @reftable_record_init(ptr noundef nonnull %5, i8 noundef zeroext %.val) #12
  %7 = call i32 @reftable_record_key(ptr noundef nonnull %1, ptr noundef nonnull %3) #12
  %8 = icmp slt i32 %7, 0
  br i1 %8, label %37, label %.preheader

.preheader:                                       ; preds = %2
  %9 = getelementptr inbounds nuw i8, ptr %6, i64 24
  %10 = getelementptr inbounds nuw i8, ptr %6, i64 32
  %11 = getelementptr inbounds nuw i8, ptr %6, i64 72
  %12 = getelementptr inbounds nuw i8, ptr %6, i64 16
  %13 = getelementptr inbounds nuw i8, ptr %6, i64 116
  %14 = getelementptr inbounds nuw i8, ptr %6, i64 8
  %15 = getelementptr inbounds nuw i8, ptr %6, i64 200
  %16 = getelementptr inbounds nuw i8, ptr %6, i64 120
  %17 = getelementptr inbounds nuw i8, ptr %0, i64 24
  %18 = getelementptr inbounds nuw i8, ptr %0, i64 120
  br label %19

19:                                               ; preds = %.preheader, %table_iter_next_block.exit
  call void @llvm.lifetime.start.p0(i64 208, ptr nonnull %6) #12
  call void @llvm.memcpy.p0.p0.i64(ptr noundef nonnull align 8 dereferenceable(208) %6, ptr noundef nonnull align 8 dereferenceable(208) %0, i64 208, i1 false), !tbaa.struct !79
  call void @llvm.memset.p0.i64(ptr noundef nonnull align 8 dereferenceable(32) %10, i8 0, i64 32, i1 false)
  call void @llvm.memset.p0.i64(ptr noundef nonnull align 8 dereferenceable(24) %11, i8 0, i64 24, i1 false)
  %20 = load i64, ptr %12, align 8, !tbaa !68
  %21 = load i32, ptr %13, align 4, !tbaa !75
  %22 = zext i32 %21 to i64
  %23 = add i64 %20, %22
  %24 = load ptr, ptr %6, align 8, !tbaa !33
  %25 = load i8, ptr %14, align 8, !tbaa !67
  %26 = call i32 @reader_init_block_reader(ptr noundef %24, ptr noundef nonnull %9, i64 noundef %23, i8 noundef zeroext %25)
  %27 = icmp sgt i32 %26, 0
  br i1 %27, label %.loopexit, label %28

28:                                               ; preds = %19
  %.not.i = icmp eq i32 %26, 0
  br i1 %.not.i, label %29, label %table_iter_next_block.exit.thread27

29:                                               ; preds = %28
  store i64 %23, ptr %12, align 8, !tbaa !68
  store i32 0, ptr %15, align 8, !tbaa !69
  call void @block_iter_seek_start(ptr noundef nonnull %16, ptr noundef nonnull %9) #12
  %30 = call i32 @block_reader_first_key(ptr noundef nonnull %9, ptr noundef nonnull %4) #12
  %31 = icmp slt i32 %30, 0
  br i1 %31, label %table_iter_next_block.exit.thread27, label %32

32:                                               ; preds = %29
  %33 = call i32 @reftable_buf_cmp(ptr noundef nonnull %4, ptr noundef nonnull %3) #12
  %34 = icmp sgt i32 %33, 0
  br i1 %34, label %35, label %table_iter_next_block.exit

35:                                               ; preds = %32
  call void @block_reader_release(ptr noundef nonnull %9) #12
  call void @block_iter_reset(ptr noundef nonnull %16) #12
  br label %.loopexit

table_iter_next_block.exit.thread27:              ; preds = %29, %28
  %.1.ph = phi i32 [ %26, %28 ], [ %30, %29 ]
  call void @llvm.lifetime.end.p0(i64 208, ptr nonnull %6) #12
  br label %37

table_iter_next_block.exit:                       ; preds = %32
  call void @block_reader_release(ptr noundef nonnull %17) #12
  call void @block_iter_reset(ptr noundef nonnull %18) #12
  call void @llvm.memcpy.p0.p0.i64(ptr noundef nonnull align 8 dereferenceable(208) %0, ptr noundef nonnull align 8 dereferenceable(208) %6, i64 208, i1 false), !tbaa.struct !79
  call void @llvm.lifetime.end.p0(i64 208, ptr nonnull %6) #12
  br label %19

.loopexit:                                        ; preds = %19, %35
  call void @llvm.lifetime.end.p0(i64 208, ptr nonnull %6) #12
  %36 = call i32 @block_iter_seek_key(ptr noundef nonnull %18, ptr noundef nonnull %17, ptr noundef nonnull %3) #12
  %spec.store.select = call i32 @llvm.smin.i32(i32 %36, i32 0)
  br label %37

37:                                               ; preds = %2, %.loopexit, %table_iter_next_block.exit.thread27
  %.014 = phi i32 [ %7, %2 ], [ %spec.store.select, %.loopexit ], [ %.1.ph, %table_iter_next_block.exit.thread27 ]
  call void @reftable_record_release(ptr noundef nonnull %5) #12
  call void @reftable_buf_release(ptr noundef nonnull %3) #12
  call void @reftable_buf_release(ptr noundef nonnull %4) #12
  call void @llvm.lifetime.end.p0(i64 152, ptr nonnull %5) #12
  call void @llvm.lifetime.end.p0(i64 24, ptr nonnull %4) #12
  call void @llvm.lifetime.end.p0(i64 24, ptr nonnull %3) #12
  ret i32 %.014
}